target datalayout = "e-m:e-p270:32:32-p271:32:32-p272:64:64-i64:64-i128:128-f80:128-n8:16:32:64-S128"
target triple = "x86_64-pc-linux-gnu"

%struct.FontManagerNativeIDs = type { ptr, ptr, ptr, ptr, ptr, ptr, ptr, ptr, ptr, ptr, ptr, ptr, ptr, ptr, ptr, ptr, ptr, ptr, ptr, ptr, ptr, ptr, ptr, ptr, ptr, ptr, ptr, ptr, ptr, ptr, ptr, ptr, ptr, ptr, ptr, ptr, ptr }
%struct.JNINativeInterface_ = type { ptr, ptr, ptr, ptr, ptr, ptr, ptr, ptr, ptr, ptr, ptr, ptr, ptr, ptr, ptr, ptr, ptr, ptr, ptr, ptr, ptr, ptr, ptr, ptr, ptr, ptr, ptr, ptr, ptr, ptr, ptr, ptr, ptr, ptr, ptr, ptr, ptr, ptr, ptr, ptr, ptr, ptr, ptr, ptr, ptr, ptr, ptr, ptr, ptr, ptr, ptr, ptr, ptr, ptr, ptr, ptr, ptr, ptr, ptr, ptr, ptr, ptr, ptr, ptr, ptr, ptr, ptr, ptr, ptr, ptr, ptr, ptr, ptr, ptr, ptr, ptr, ptr, ptr, ptr, ptr, ptr, ptr, ptr, ptr, ptr, ptr, ptr, ptr, ptr, ptr, ptr, ptr, ptr, ptr, ptr, ptr, ptr, ptr, ptr, ptr, ptr, ptr, ptr, ptr, ptr, ptr, ptr, ptr, ptr, ptr, ptr, ptr, ptr, ptr, ptr, ptr, ptr, ptr, ptr, ptr, ptr, ptr, ptr, ptr, ptr, ptr, ptr, ptr, ptr, ptr, ptr, ptr, ptr, ptr, ptr, ptr, ptr, ptr, ptr, ptr, ptr, ptr, ptr, ptr, ptr, ptr, ptr, ptr, ptr, ptr, ptr, ptr, ptr, ptr, ptr, ptr, ptr, ptr, ptr, ptr, ptr, ptr, ptr, ptr, ptr, ptr, ptr, ptr, ptr, ptr, ptr, ptr, ptr, ptr, ptr, ptr, ptr, ptr, ptr, ptr, ptr, ptr, ptr, ptr, ptr, ptr, ptr, ptr, ptr, ptr, ptr, ptr, ptr, ptr, ptr, ptr, ptr, ptr, ptr, ptr, ptr, ptr, ptr, ptr, ptr, ptr, ptr, ptr, ptr, ptr, ptr, ptr, ptr, ptr, ptr, ptr, ptr, ptr, ptr, ptr, ptr, ptr, ptr, ptr, ptr, ptr, ptr, ptr, ptr, ptr, ptr, ptr, ptr, ptr, ptr }
%struct.FTScalerInfo = type { ptr, ptr, ptr, ptr, ptr, ptr, ptr, i32, i32, i32 }
%struct.FT_StreamRec_ = type { ptr, i64, i64, %union.FT_StreamDesc_, %union.FT_StreamDesc_, ptr, ptr, ptr, ptr, ptr }
%union.FT_StreamDesc_ = type { i64 }

@debugFonts = internal global i8 0, align 1
@sunFontIDs = external global %struct.FontManagerNativeIDs, align 8

; Function Attrs: nounwind uwtable
define internal i64 @ReadTTFontFileFunc(ptr noundef %0, i64 noundef %1, ptr noundef %2, i64 noundef %3) #0 {
  %5 = alloca i64, align 8
  %6 = alloca ptr, align 8
  %7 = alloca i64, align 8
  %8 = alloca ptr, align 8
  %9 = alloca i64, align 8
  %10 = alloca ptr, align 8
  %11 = alloca ptr, align 8
  %12 = alloca ptr, align 8
  %13 = alloca i32, align 4
  %14 = alloca ptr, align 8
  %15 = alloca i64, align 8
  %16 = alloca i32, align 4
  store ptr %0, ptr %6, align 8
  store i64 %1, ptr %7, align 8
  store ptr %2, ptr %8, align 8
  store i64 %3, ptr %9, align 8
  %17 = load ptr, ptr %6, align 8
  %18 = getelementptr inbounds %struct.FT_StreamRec_, ptr %17, i32 0, i32 4
  %19 = load ptr, ptr %18, align 8
  store ptr %19, ptr %10, align 8
  %20 = load ptr, ptr %10, align 8
  %21 = getelementptr inbounds %struct.FTScalerInfo, ptr %20, i32 0, i32 0
  %22 = load ptr, ptr %21, align 8
  store ptr %22, ptr %11, align 8
  store i32 0, ptr %13, align 4
  %23 = load i64, ptr %9, align 8
  %24 = icmp eq i64 %23, 0
  br i1 %24, label %25, label %34

25:                                               ; preds = %4
  %26 = load i64, ptr %7, align 8
  %27 = load ptr, ptr %10, align 8
  %28 = getelementptr inbounds %struct.FTScalerInfo, ptr %27, i32 0, i32 9
  %29 = load i32, ptr %28, align 8
  %30 = zext i32 %29 to i64
  %31 = icmp ugt i64 %26, %30
  br i1 %31, label %32, label %33

32:                                               ; preds = %25
  store i64 -1, ptr %5, align 8
  br label %311

33:                                               ; preds = %25
  store i64 0, ptr %5, align 8
  br label %311

34:                                               ; preds = %4
  %35 = load i64, ptr %7, align 8
  %36 = load i64, ptr %9, align 8
  %37 = add i64 %35, %36
  %38 = load i64, ptr %7, align 8
  %39 = icmp ult i64 %37, %38
  br i1 %39, label %40, label %41

40:                                               ; preds = %34
  store i64 0, ptr %5, align 8
  br label %311

41:                                               ; preds = %34
  %42 = load i64, ptr %7, align 8
  %43 = load ptr, ptr %10, align 8
  %44 = getelementptr inbounds %struct.FTScalerInfo, ptr %43, i32 0, i32 9
  %45 = load i32, ptr %44, align 8
  %46 = zext i32 %45 to i64
  %47 = icmp uge i64 %42, %46
  br i1 %47, label %48, label %49

48:                                               ; preds = %41
  store i64 0, ptr %5, align 8
  br label %311

49:                                               ; preds = %41
  %50 = load i64, ptr %7, align 8
  %51 = load i64, ptr %9, align 8
  %52 = add i64 %50, %51
  %53 = load ptr, ptr %10, align 8
  %54 = getelementptr inbounds %struct.FTScalerInfo, ptr %53, i32 0, i32 9
  %55 = load i32, ptr %54, align 8
  %56 = zext i32 %55 to i64
  %57 = icmp ugt i64 %52, %56
  br i1 %57, label %58, label %65

58:                                               ; preds = %49
  %59 = load ptr, ptr %10, align 8
  %60 = getelementptr inbounds %struct.FTScalerInfo, ptr %59, i32 0, i32 9
  %61 = load i32, ptr %60, align 8
  %62 = zext i32 %61 to i64
  %63 = load i64, ptr %7, align 8
  %64 = sub i64 %62, %63
  store i64 %64, ptr %9, align 8
  br label %65

65:                                               ; preds = %58, %49
  %66 = load i64, ptr %9, align 8
  %67 = icmp ugt i64 %66, 1024
  br i1 %67, label %68, label %188

68:                                               ; preds = %65
  %69 = load ptr, ptr %11, align 8
  %70 = load ptr, ptr %69, align 8
  %71 = getelementptr inbounds %struct.JNINativeInterface_, ptr %70, i32 0, i32 229
  %72 = load ptr, ptr %71, align 8
  %73 = load ptr, ptr %11, align 8
  %74 = load ptr, ptr %8, align 8
  %75 = load i64, ptr %9, align 8
  %76 = call ptr %72(ptr noundef %73, ptr noundef %74, i64 noundef %75)
  store ptr %76, ptr %12, align 8
  %77 = load ptr, ptr %12, align 8
  %78 = icmp ne ptr %77, null
  br i1 %78, label %79, label %123

79:                                               ; preds = %68
  %80 = load ptr, ptr %11, align 8
  %81 = load ptr, ptr %80, align 8
  %82 = getelementptr inbounds %struct.JNINativeInterface_, ptr %81, i32 0, i32 49
  %83 = load ptr, ptr %82, align 8
  %84 = load ptr, ptr %11, align 8
  %85 = load ptr, ptr %10, align 8
  %86 = getelementptr inbounds %struct.FTScalerInfo, ptr %85, i32 0, i32 4
  %87 = load ptr, ptr %86, align 8
  %88 = load ptr, ptr getelementptr inbounds (%struct.FontManagerNativeIDs, ptr @sunFontIDs, i32 0, i32 26), align 8
  %89 = load ptr, ptr %12, align 8
  %90 = load i64, ptr %7, align 8
  %91 = load i64, ptr %9, align 8
  %92 = call i32 (ptr, ptr, ptr, ...) %83(ptr noundef %84, ptr noundef %87, ptr noundef %88, ptr noundef %89, i64 noundef %90, i64 noundef %91)
  store i32 %92, ptr %13, align 4
  %93 = load ptr, ptr %11, align 8
  %94 = load ptr, ptr %93, align 8
  %95 = getelementptr inbounds %struct.JNINativeInterface_, ptr %94, i32 0, i32 228
  %96 = load ptr, ptr %95, align 8
  %97 = load ptr, ptr %11, align 8
  %98 = call zeroext i8 %96(ptr noundef %97)
  %99 = icmp ne i8 %98, 0
  br i1 %99, label %100, label %116

100:                                              ; preds = %79
  %101 = load i8, ptr @debugFonts, align 1
  %102 = icmp ne i8 %101, 0
  br i1 %102, label %103, label %109

103:                                              ; preds = %100
  %104 = load ptr, ptr %11, align 8
  %105 = load ptr, ptr %104, align 8
  %106 = getelementptr inbounds %struct.JNINativeInterface_, ptr %105, i32 0, i32 16
  %107 = load ptr, ptr %106, align 8
  %108 = load ptr, ptr %11, align 8
  call void %107(ptr noundef %108)
  br label %115

109:                                              ; preds = %100
  %110 = load ptr, ptr %11, align 8
  %111 = load ptr, ptr %110, align 8
  %112 = getelementptr inbounds %struct.JNINativeInterface_, ptr %111, i32 0, i32 17
  %113 = load ptr, ptr %112, align 8
  %114 = load ptr, ptr %11, align 8
  call void %113(ptr noundef %114)
  br label %115

115:                                              ; preds = %109, %103
  br label %116

116:                                              ; preds = %115, %79
  %117 = load i32, ptr %13, align 4
  %118 = icmp slt i32 %117, 0
  br i1 %118, label %119, label %120

119:                                              ; preds = %116
  store i64 0, ptr %5, align 8
  br label %311

120:                                              ; preds = %116
  %121 = load i32, ptr %13, align 4
  %122 = sext i32 %121 to i64
  store i64 %122, ptr %5, align 8
  br label %311

123:                                              ; preds = %68
  %124 = load ptr, ptr %11, align 8
  %125 = load ptr, ptr %124, align 8
  %126 = getelementptr inbounds %struct.JNINativeInterface_, ptr %125, i32 0, i32 34
  %127 = load ptr, ptr %126, align 8
  %128 = load ptr, ptr %11, align 8
  %129 = load ptr, ptr %10, align 8
  %130 = getelementptr inbounds %struct.FTScalerInfo, ptr %129, i32 0, i32 4
  %131 = load ptr, ptr %130, align 8
  %132 = load ptr, ptr getelementptr inbounds (%struct.FontManagerNativeIDs, ptr @sunFontIDs, i32 0, i32 27), align 8
  %133 = load i64, ptr %7, align 8
  %134 = load i64, ptr %9, align 8
  %135 = call ptr (ptr, ptr, ptr, ...) %127(ptr noundef %128, ptr noundef %131, ptr noundef %132, i64 noundef %133, i64 noundef %134)
  store ptr %135, ptr %14, align 8
  %136 = load ptr, ptr %11, align 8
  %137 = load ptr, ptr %136, align 8
  %138 = getelementptr inbounds %struct.JNINativeInterface_, ptr %137, i32 0, i32 228
  %139 = load ptr, ptr %138, align 8
  %140 = load ptr, ptr %11, align 8
  %141 = call zeroext i8 %139(ptr noundef %140)
  %142 = icmp ne i8 %141, 0
  br i1 %142, label %143, label %159

143:                                              ; preds = %123
  %144 = load i8, ptr @debugFonts, align 1
  %145 = icmp ne i8 %144, 0
  br i1 %145, label %146, label %152

146:                                              ; preds = %143
  %147 = load ptr, ptr %11, align 8
  %148 = load ptr, ptr %147, align 8
  %149 = getelementptr inbounds %struct.JNINativeInterface_, ptr %148, i32 0, i32 16
  %150 = load ptr, ptr %149, align 8
  %151 = load ptr, ptr %11, align 8
  call void %150(ptr noundef %151)
  br label %158

152:                                              ; preds = %143
  %153 = load ptr, ptr %11, align 8
  %154 = load ptr, ptr %153, align 8
  %155 = getelementptr inbounds %struct.JNINativeInterface_, ptr %154, i32 0, i32 17
  %156 = load ptr, ptr %155, align 8
  %157 = load ptr, ptr %11, align 8
  call void %156(ptr noundef %157)
  br label %158

158:                                              ; preds = %152, %146
  br label %159

159:                                              ; preds = %158, %123
  %160 = load ptr, ptr %14, align 8
  %161 = icmp eq ptr %160, null
  br i1 %161, label %162, label %163

162:                                              ; preds = %159
  store i64 0, ptr %5, align 8
  br label %311

163:                                              ; preds = %159
  %164 = load ptr, ptr %11, align 8
  %165 = load ptr, ptr %164, align 8
  %166 = getelementptr inbounds %struct.JNINativeInterface_, ptr %165, i32 0, i32 171
  %167 = load ptr, ptr %166, align 8
  %168 = load ptr, ptr %11, align 8
  %169 = load ptr, ptr %14, align 8
  %170 = call i32 %167(ptr noundef %168, ptr noundef %169)
  %171 = sext i32 %170 to i64
  store i64 %171, ptr %15, align 8
  %172 = load i64, ptr %15, align 8
  %173 = load i64, ptr %9, align 8
  %174 = icmp ult i64 %172, %173
  br i1 %174, label %175, label %177

175:                                              ; preds = %163
  %176 = load i64, ptr %15, align 8
  store i64 %176, ptr %9, align 8
  br label %177

177:                                              ; preds = %175, %163
  %178 = load ptr, ptr %11, align 8
  %179 = load ptr, ptr %178, align 8
  %180 = getelementptr inbounds %struct.JNINativeInterface_, ptr %179, i32 0, i32 200
  %181 = load ptr, ptr %180, align 8
  %182 = load ptr, ptr %11, align 8
  %183 = load ptr, ptr %14, align 8
  %184 = load i64, ptr %9, align 8
  %185 = trunc i64 %184 to i32
  %186 = load ptr, ptr %8, align 8
  call void %181(ptr noundef %182, ptr noundef %183, i32 noundef 0, i32 noundef %185, ptr noundef %186)
  %187 = load i64, ptr %9, align 8
  store i64 %187, ptr %5, align 8
  br label %311

188:                                              ; preds = %65
  %189 = load ptr, ptr %10, align 8
  %190 = getelementptr inbounds %struct.FTScalerInfo, ptr %189, i32 0, i32 7
  %191 = load i32, ptr %190, align 8
  %192 = zext i32 %191 to i64
  %193 = load i64, ptr %7, align 8
  %194 = icmp ule i64 %192, %193
  br i1 %194, label %195, label %225

195:                                              ; preds = %188
  %196 = load ptr, ptr %10, align 8
  %197 = getelementptr inbounds %struct.FTScalerInfo, ptr %196, i32 0, i32 7
  %198 = load i32, ptr %197, align 8
  %199 = load ptr, ptr %10, align 8
  %200 = getelementptr inbounds %struct.FTScalerInfo, ptr %199, i32 0, i32 8
  %201 = load i32, ptr %200, align 4
  %202 = add i32 %198, %201
  %203 = zext i32 %202 to i64
  %204 = load i64, ptr %7, align 8
  %205 = load i64, ptr %9, align 8
  %206 = add i64 %204, %205
  %207 = icmp uge i64 %203, %206
  br i1 %207, label %208, label %225

208:                                              ; preds = %195
  %209 = load i64, ptr %7, align 8
  %210 = load ptr, ptr %10, align 8
  %211 = getelementptr inbounds %struct.FTScalerInfo, ptr %210, i32 0, i32 7
  %212 = load i32, ptr %211, align 8
  %213 = zext i32 %212 to i64
  %214 = sub i64 %209, %213
  %215 = trunc i64 %214 to i32
  store i32 %215, ptr %16, align 4
  %216 = load ptr, ptr %8, align 8
  %217 = load ptr, ptr %10, align 8
  %218 = getelementptr inbounds %struct.FTScalerInfo, ptr %217, i32 0, i32 6
  %219 = load ptr, ptr %218, align 8
  %220 = load i32, ptr %16, align 4
  %221 = zext i32 %220 to i64
  %222 = getelementptr inbounds i8, ptr %219, i64 %221
  %223 = load i64, ptr %9, align 8
  call void @llvm.memcpy.p0.p0.i64(ptr align 1 %216, ptr align 1 %222, i64 %223, i1 false)
  %224 = load i64, ptr %9, align 8
  store i64 %224, ptr %5, align 8
  br label %311

225:                                              ; preds = %195, %188
  %226 = load i64, ptr %7, align 8
  %227 = trunc i64 %226 to i32
  %228 = load ptr, ptr %10, align 8
  %229 = getelementptr inbounds %struct.FTScalerInfo, ptr %228, i32 0, i32 7
  store i32 %227, ptr %229, align 8
  %230 = load i64, ptr %7, align 8
  %231 = add i64 %230, 1024
  %232 = load ptr, ptr %10, align 8
  %233 = getelementptr inbounds %struct.FTScalerInfo, ptr %232, i32 0, i32 9
  %234 = load i32, ptr %233, align 8
  %235 = zext i32 %234 to i64
  %236 = icmp ugt i64 %231, %235
  br i1 %236, label %237, label %244

237:                                              ; preds = %225
  %238 = load ptr, ptr %10, align 8
  %239 = getelementptr inbounds %struct.FTScalerInfo, ptr %238, i32 0, i32 9
  %240 = load i32, ptr %239, align 8
  %241 = zext i32 %240 to i64
  %242 = load i64, ptr %7, align 8
  %243 = sub i64 %241, %242
  br label %245

244:                                              ; preds = %225
  br label %245

245:                                              ; preds = %244, %237
  %246 = phi i64 [ %243, %237 ], [ 1024, %244 ]
  %247 = trunc i64 %246 to i32
  %248 = load ptr, ptr %10, align 8
  %249 = getelementptr inbounds %struct.FTScalerInfo, ptr %248, i32 0, i32 8
  store i32 %247, ptr %249, align 4
  %250 = load ptr, ptr %10, align 8
  %251 = getelementptr inbounds %struct.FTScalerInfo, ptr %250, i32 0, i32 5
  %252 = load ptr, ptr %251, align 8
  store ptr %252, ptr %12, align 8
  %253 = load ptr, ptr %11, align 8
  %254 = load ptr, ptr %253, align 8
  %255 = getelementptr inbounds %struct.JNINativeInterface_, ptr %254, i32 0, i32 49
  %256 = load ptr, ptr %255, align 8
  %257 = load ptr, ptr %11, align 8
  %258 = load ptr, ptr %10, align 8
  %259 = getelementptr inbounds %struct.FTScalerInfo, ptr %258, i32 0, i32 4
  %260 = load ptr, ptr %259, align 8
  %261 = load ptr, ptr getelementptr inbounds (%struct.FontManagerNativeIDs, ptr @sunFontIDs, i32 0, i32 26), align 8
  %262 = load ptr, ptr %12, align 8
  %263 = load i64, ptr %7, align 8
  %264 = load ptr, ptr %10, align 8
  %265 = getelementptr inbounds %struct.FTScalerInfo, ptr %264, i32 0, i32 8
  %266 = load i32, ptr %265, align 4
  %267 = call i32 (ptr, ptr, ptr, ...) %256(ptr noundef %257, ptr noundef %260, ptr noundef %261, ptr noundef %262, i64 noundef %263, i32 noundef %266)
  store i32 %267, ptr %13, align 4
  %268 = load ptr, ptr %11, align 8
  %269 = load ptr, ptr %268, align 8
  %270 = getelementptr inbounds %struct.JNINativeInterface_, ptr %269, i32 0, i32 228
  %271 = load ptr, ptr %270, align 8
  %272 = load ptr, ptr %11, align 8
  %273 = call zeroext i8 %271(ptr noundef %272)
  %274 = icmp ne i8 %273, 0
  br i1 %274, label %275, label %291

275:                                              ; preds = %245
  %276 = load i8, ptr @debugFonts, align 1
  %277 = icmp ne i8 %276, 0
  br i1 %277, label %278, label %284

278:                                              ; preds = %275
  %279 = load ptr, ptr %11, align 8
  %280 = load ptr, ptr %279, align 8
  %281 = getelementptr inbounds %struct.JNINativeInterface_, ptr %280, i32 0, i32 16
  %282 = load ptr, ptr %281, align 8
  %283 = load ptr, ptr %11, align 8
  call void %282(ptr noundef %283)
  br label %290

284:                                              ; preds = %275
  %285 = load ptr, ptr %11, align 8
  %286 = load ptr, ptr %285, align 8
  %287 = getelementptr inbounds %struct.JNINativeInterface_, ptr %286, i32 0, i32 17
  %288 = load ptr, ptr %287, align 8
  %289 = load ptr, ptr %11, align 8
  call void %288(ptr noundef %289)
  br label %290

290:                                              ; preds = %284, %278
  br label %291

291:                                              ; preds = %290, %245
  %292 = load i32, ptr %13, align 4
  %293 = icmp sle i32 %292, 0
  br i1 %293, label %294, label %295

294:                                              ; preds = %291
  store i64 0, ptr %5, align 8
  br label %311

295:                                              ; preds = %291
  %296 = load i32, ptr %13, align 4
  %297 = sext i32 %296 to i64
  %298 = load i64, ptr %9, align 8
  %299 = icmp ult i64 %297, %298
  br i1 %299, label %300, label %303

300:                                              ; preds = %295
  %301 = load i32, ptr %13, align 4
  %302 = sext i32 %301 to i64
  store i64 %302, ptr %9, align 8
  br label %303

303:                                              ; preds = %300, %295
  br label %304

304:                                              ; preds = %303
  %305 = load ptr, ptr %8, align 8
  %306 = load ptr, ptr %10, align 8
  %307 = getelementptr inbounds %struct.FTScalerInfo, ptr %306, i32 0, i32 6
  %308 = load ptr, ptr %307, align 8
  %309 = load i64, ptr %9, align 8
  call void @llvm.memcpy.p0.p0.i64(ptr align 1 %305, ptr align 1 %308, i64 %309, i1 false)
  %310 = load i64, ptr %9, align 8
  store i64 %310, ptr %5, align 8
  br label %311

311:                                              ; preds = %304, %294, %208, %177, %162, %120, %119, %48, %40, %33, %32
  %312 = load i64, ptr %5, align 8
  ret i64 %312
}