; Function Attrs: nounwind uwtable
define internal i64 @ReadTTFontFileFunc(ptr nocapture noundef readonly %0, i64 noundef %1, ptr noundef %2, i64 noundef %3) #0 {
  %5 = getelementptr inbounds i8, ptr %0, i64 32
  %6 = load ptr, ptr %5, align 8
  %7 = load ptr, ptr %6, align 8
  %8 = icmp eq i64 %3, 0
  br i1 %8, label %9, label %14

9:                                                ; preds = %4
  %10 = getelementptr inbounds i8, ptr %6, i64 64
  %11 = load i32, ptr %10, align 8
  %12 = zext i32 %11 to i64
  %13 = icmp ult i64 %12, %1
  %. = sext i1 %13 to i64
  br label %119

14:                                               ; preds = %4
  %15 = add i64 %3, %1
  %16 = icmp ult i64 %15, %1
  br i1 %16, label %119, label %17

17:                                               ; preds = %14
  %18 = getelementptr inbounds i8, ptr %6, i64 64
  %19 = load i32, ptr %18, align 8
  %20 = zext i32 %19 to i64
  %.not = icmp ugt i64 %20, %1
  br i1 %.not, label %21, label %119

21:                                               ; preds = %17
  %22 = icmp ugt i64 %15, %20
  %23 = sub nsw i64 %20, %1
  %spec.select = select i1 %22, i64 %23, i64 %3
  %24 = icmp ugt i64 %spec.select, 1024
  br i1 %24, label %25, label %72

25:                                               ; preds = %21
  %26 = load ptr, ptr %7, align 8
  %27 = getelementptr inbounds i8, ptr %26, i64 1832
  %28 = load ptr, ptr %27, align 8
  %29 = tail call ptr %28(ptr noundef nonnull %7, ptr noundef %2, i64 noundef %spec.select) #19
  %.not117 = icmp eq ptr %29, null
  %30 = load ptr, ptr %7, align 8
  %31 = getelementptr inbounds i8, ptr %6, i64 32
  %32 = load ptr, ptr %31, align 8
  br i1 %.not117, label %47, label %33

33:                                               ; preds = %25
  %34 = getelementptr inbounds i8, ptr %30, i64 392
  %35 = load ptr, ptr %34, align 8
  %36 = load ptr, ptr getelementptr inbounds (i8, ptr @sunFontIDs, i64 208), align 8
  %37 = tail call i32 (ptr, ptr, ptr, ...) %35(ptr noundef nonnull %7, ptr noundef %32, ptr noundef %36, ptr noundef nonnull %29, i64 noundef %1, i64 noundef %spec.select) #19
  %38 = load ptr, ptr %7, align 8
  %39 = getelementptr inbounds i8, ptr %38, i64 1824
  %40 = load ptr, ptr %39, align 8
  %41 = tail call zeroext i8 %40(ptr noundef nonnull %7) #19
  %.not120 = icmp eq i8 %41, 0
  br i1 %.not120, label %46, label %.sink.split

.sink.split:                                      ; preds = %33
  %42 = load i8, ptr @debugFonts, align 1
  %.not121 = icmp eq i8 %42, 0
  %43 = load ptr, ptr %7, align 8
  %.134 = select i1 %.not121, i64 136, i64 128
  %44 = getelementptr inbounds i8, ptr %43, i64 %.134
  %45 = load ptr, ptr %44, align 8
  tail call void %45(ptr noundef nonnull %7) #19
  br label %46

46:                                               ; preds = %.sink.split, %33
  %narrow = tail call i32 @llvm.smax.i32(i32 %37, i32 0)
  %spec.select124 = zext nneg i32 %narrow to i64
  br label %119

47:                                               ; preds = %25
  %48 = getelementptr inbounds i8, ptr %30, i64 272
  %49 = load ptr, ptr %48, align 8
  %50 = load ptr, ptr getelementptr inbounds (i8, ptr @sunFontIDs, i64 216), align 8
  %51 = tail call ptr (ptr, ptr, ptr, ...) %49(ptr noundef nonnull %7, ptr noundef %32, ptr noundef %50, i64 noundef %1, i64 noundef %spec.select) #19
  %52 = load ptr, ptr %7, align 8
  %53 = getelementptr inbounds i8, ptr %52, i64 1824
  %54 = load ptr, ptr %53, align 8
  %55 = tail call zeroext i8 %54(ptr noundef nonnull %7) #19
  %.not118 = icmp eq i8 %55, 0
  br i1 %.not118, label %60, label %.sink.split126

.sink.split126:                                   ; preds = %47
  %56 = load i8, ptr @debugFonts, align 1
  %.not119 = icmp eq i8 %56, 0
  %57 = load ptr, ptr %7, align 8
  %.135 = select i1 %.not119, i64 136, i64 128
  %58 = getelementptr inbounds i8, ptr %57, i64 %.135
  %59 = load ptr, ptr %58, align 8
  tail call void %59(ptr noundef nonnull %7) #19
  br label %60

60:                                               ; preds = %.sink.split126, %47
  %61 = icmp eq ptr %51, null
  br i1 %61, label %119, label %62

62:                                               ; preds = %60
  %63 = load ptr, ptr %7, align 8
  %64 = getelementptr inbounds i8, ptr %63, i64 1368
  %65 = load ptr, ptr %64, align 8
  %66 = tail call i32 %65(ptr noundef nonnull %7, ptr noundef nonnull %51) #19
  %67 = sext i32 %66 to i64
  %spec.select122 = tail call i64 @llvm.umin.i64(i64 %spec.select, i64 %67)
  %68 = load ptr, ptr %7, align 8
  %69 = getelementptr inbounds i8, ptr %68, i64 1600
  %70 = load ptr, ptr %69, align 8
  %71 = trunc i64 %spec.select122 to i32
  tail call void %70(ptr noundef nonnull %7, ptr noundef nonnull %51, i32 noundef 0, i32 noundef %71, ptr noundef %2) #19
  br label %119

72:                                               ; preds = %21
  %73 = getelementptr inbounds i8, ptr %6, i64 56
  %74 = load i32, ptr %73, align 8
  %75 = zext i32 %74 to i64
  %.not113 = icmp ugt i64 %75, %1
  br i1 %.not113, label %89, label %76

76:                                               ; preds = %72
  %77 = getelementptr inbounds i8, ptr %6, i64 60
  %78 = load i32, ptr %77, align 4
  %79 = add i32 %78, %74
  %80 = zext i32 %79 to i64
  %81 = add nuw nsw i64 %spec.select, %1
  %.not114 = icmp ugt i64 %81, %80
  br i1 %.not114, label %89, label %82

82:                                               ; preds = %76
  %83 = trunc i64 %1 to i32
  %84 = sub i32 %83, %74
  %85 = getelementptr inbounds i8, ptr %6, i64 48
  %86 = load ptr, ptr %85, align 8
  %87 = zext i32 %84 to i64
  %88 = getelementptr inbounds i8, ptr %86, i64 %87
  tail call void @llvm.memcpy.p0.p0.i64(ptr align 1 %2, ptr align 1 %88, i64 %spec.select, i1 false)
  br label %119

89:                                               ; preds = %76, %72
  %90 = trunc i64 %1 to i32
  store i32 %90, ptr %73, align 8
  %91 = add nuw nsw i64 %1, 1024
  %92 = icmp ugt i64 %91, %20
  %93 = sub i32 %19, %90
  %94 = select i1 %92, i32 %93, i32 1024
  %95 = getelementptr inbounds i8, ptr %6, i64 60
  store i32 %94, ptr %95, align 4
  %96 = getelementptr inbounds i8, ptr %6, i64 40
  %97 = load ptr, ptr %96, align 8
  %98 = load ptr, ptr %7, align 8
  %99 = getelementptr inbounds i8, ptr %98, i64 392
  %100 = load ptr, ptr %99, align 8
  %101 = getelementptr inbounds i8, ptr %6, i64 32
  %102 = load ptr, ptr %101, align 8
  %103 = load ptr, ptr getelementptr inbounds (i8, ptr @sunFontIDs, i64 208), align 8
  %104 = tail call i32 (ptr, ptr, ptr, ...) %100(ptr noundef nonnull %7, ptr noundef %102, ptr noundef %103, ptr noundef %97, i64 noundef %1, i32 noundef %94) #19
  %105 = load ptr, ptr %7, align 8
  %106 = getelementptr inbounds i8, ptr %105, i64 1824
  %107 = load ptr, ptr %106, align 8
  %108 = tail call zeroext i8 %107(ptr noundef nonnull %7) #19
  %.not115 = icmp eq i8 %108, 0
  br i1 %.not115, label %113, label %.sink.split130

.sink.split130:                                   ; preds = %89
  %109 = load i8, ptr @debugFonts, align 1
  %.not116 = icmp eq i8 %109, 0
  %110 = load ptr, ptr %7, align 8
  %.136 = select i1 %.not116, i64 136, i64 128
  %111 = getelementptr inbounds i8, ptr %110, i64 %.136
  %112 = load ptr, ptr %111, align 8
  tail call void %112(ptr noundef nonnull %7) #19
  br label %113

113:                                              ; preds = %.sink.split130, %89
  %114 = icmp slt i32 %104, 1
  br i1 %114, label %119, label %115

115:                                              ; preds = %113
  %116 = zext nneg i32 %104 to i64
  %spec.select123 = tail call i64 @llvm.umin.i64(i64 %spec.select, i64 %116)
  %117 = getelementptr inbounds i8, ptr %6, i64 48
  %118 = load ptr, ptr %117, align 8
  tail call void @llvm.memcpy.p0.p0.i64(ptr align 1 %2, ptr align 1 %118, i64 %spec.select123, i1 false)
  br label %119

119:                                              ; preds = %46, %113, %60, %17, %14, %9, %115, %82, %62
  %.0 = phi i64 [ %spec.select122, %62 ], [ %spec.select, %82 ], [ %spec.select123, %115 ], [ %., %9 ], [ 0, %14 ], [ 0, %17 ], [ 0, %60 ], [ 0, %113 ], [ %spec.select124, %46 ]
  ret i64 %.0
}